
main:     file format elf64-x86-64


Disassembly of section .text:

0000000041414141 <_start-0xf>:
    41414141:	66 2e 0f 1f 84 00 00 	nopw   %cs:0x0(%rax,%rax,1)
    41414148:	00 00 00 
    4141414b:	0f 1f 44 00 00       	nopl   0x0(%rax,%rax,1)

0000000041414150 <_start>:
    41414150:	31 ed                	xor    %ebp,%ebp
    41414152:	49 89 d1             	mov    %rdx,%r9
    41414155:	5e                   	pop    %rsi
    41414156:	48 89 e2             	mov    %rsp,%rdx
    41414159:	48 83 e4 f0          	and    $0xfffffffffffffff0,%rsp
    4141415d:	50                   	push   %rax
    4141415e:	54                   	push   %rsp
    4141415f:	49 c7 c0 c0 49 41 41 	mov    $0x414149c0,%r8
    41414166:	48 c7 c1 50 49 41 41 	mov    $0x41414950,%rcx
    4141416d:	48 c7 c7 48 46 41 41 	mov    $0x41414648,%rdi
    41414174:	ff 15 7e 1e 20 00    	callq  *0x201e7e(%rip)        # 41615ff8 <__libc_start_main@GLIBC_2.2.5>
    4141417a:	f4                   	hlt    
    4141417b:	0f 1f 44 00 00       	nopl   0x0(%rax,%rax,1)

0000000041414180 <deregister_tm_clones>:
    41414180:	55                   	push   %rbp
    41414181:	b8 f0 60 61 41       	mov    $0x416160f0,%eax
    41414186:	48 3d f0 60 61 41    	cmp    $0x416160f0,%rax
    4141418c:	48 89 e5             	mov    %rsp,%rbp
    4141418f:	74 17                	je     414141a8 <deregister_tm_clones+0x28>
    41414191:	b8 00 00 00 00       	mov    $0x0,%eax
    41414196:	48 85 c0             	test   %rax,%rax
    41414199:	74 0d                	je     414141a8 <deregister_tm_clones+0x28>
    4141419b:	5d                   	pop    %rbp
    4141419c:	bf f0 60 61 41       	mov    $0x416160f0,%edi
    414141a1:	ff e0                	jmpq   *%rax
    414141a3:	0f 1f 44 00 00       	nopl   0x0(%rax,%rax,1)
    414141a8:	5d                   	pop    %rbp
    414141a9:	c3                   	retq   
    414141aa:	66 0f 1f 44 00 00    	nopw   0x0(%rax,%rax,1)

00000000414141b0 <register_tm_clones>:
    414141b0:	be f0 60 61 41       	mov    $0x416160f0,%esi
    414141b5:	55                   	push   %rbp
    414141b6:	48 81 ee f0 60 61 41 	sub    $0x416160f0,%rsi
    414141bd:	48 89 e5             	mov    %rsp,%rbp
    414141c0:	48 c1 fe 03          	sar    $0x3,%rsi
    414141c4:	48 89 f0             	mov    %rsi,%rax
    414141c7:	48 c1 e8 3f          	shr    $0x3f,%rax
    414141cb:	48 01 c6             	add    %rax,%rsi
    414141ce:	48 d1 fe             	sar    %rsi
    414141d1:	74 15                	je     414141e8 <register_tm_clones+0x38>
    414141d3:	b8 00 00 00 00       	mov    $0x0,%eax
    414141d8:	48 85 c0             	test   %rax,%rax
    414141db:	74 0b                	je     414141e8 <register_tm_clones+0x38>
    414141dd:	5d                   	pop    %rbp
    414141de:	bf f0 60 61 41       	mov    $0x416160f0,%edi
    414141e3:	ff e0                	jmpq   *%rax
    414141e5:	0f 1f 00             	nopl   (%rax)
    414141e8:	5d                   	pop    %rbp
    414141e9:	c3                   	retq   
    414141ea:	66 0f 1f 44 00 00    	nopw   0x0(%rax,%rax,1)

00000000414141f0 <__do_global_dtors_aux>:
    414141f0:	80 3d 39 1f 20 00 00 	cmpb   $0x0,0x201f39(%rip)        # 41616130 <completed.7011>
    414141f7:	75 17                	jne    41414210 <__do_global_dtors_aux+0x20>
    414141f9:	55                   	push   %rbp
    414141fa:	48 89 e5             	mov    %rsp,%rbp
    414141fd:	e8 7e ff ff ff       	callq  41414180 <deregister_tm_clones>
    41414202:	c6 05 27 1f 20 00 01 	movb   $0x1,0x201f27(%rip)        # 41616130 <completed.7011>
    41414209:	5d                   	pop    %rbp
    4141420a:	c3                   	retq   
    4141420b:	0f 1f 44 00 00       	nopl   0x0(%rax,%rax,1)
    41414210:	f3 c3                	repz retq 
    41414212:	0f 1f 40 00          	nopl   0x0(%rax)
    41414216:	66 2e 0f 1f 84 00 00 	nopw   %cs:0x0(%rax,%rax,1)
    4141421d:	00 00 00 

0000000041414220 <frame_dummy>:
    41414220:	55                   	push   %rbp
    41414221:	48 89 e5             	mov    %rsp,%rbp
    41414224:	5d                   	pop    %rbp
    41414225:	eb 89                	jmp    414141b0 <register_tm_clones>

0000000041414227 <_Z11debug_shellv>:
    41414227:	55                   	push   %rbp
    41414228:	48 89 e5             	mov    %rsp,%rbp
    4141422b:	48 8d 3d 31 08 00 00 	lea    0x831(%rip),%rdi        # 41414a63 <_ZL4FLAG+0x23>
    41414232:	e8 a9 c8 fe be       	callq  400ae0 <system@plt>
    41414237:	90                   	nop
    41414238:	5d                   	pop    %rbp
    41414239:	c3                   	retq   

000000004141423a <_Z5getsxPc>:
    4141423a:	55                   	push   %rbp
    4141423b:	48 89 e5             	mov    %rsp,%rbp
    4141423e:	48 83 ec 20          	sub    $0x20,%rsp
    41414242:	48 89 7d e8          	mov    %rdi,-0x18(%rbp)
    41414246:	48 8d 45 ff          	lea    -0x1(%rbp),%rax
    4141424a:	ba 01 00 00 00       	mov    $0x1,%edx
    4141424f:	48 89 c6             	mov    %rax,%rsi
    41414252:	bf 00 00 00 00       	mov    $0x0,%edi
    41414257:	e8 64 c8 fe be       	callq  400ac0 <read@plt>
    4141425c:	48 85 c0             	test   %rax,%rax
    4141425f:	0f 94 c0             	sete   %al
    41414262:	84 c0                	test   %al,%al
    41414264:	75 25                	jne    4141428b <_Z5getsxPc+0x51>
    41414266:	0f b6 45 ff          	movzbl -0x1(%rbp),%eax
    4141426a:	3c 0a                	cmp    $0xa,%al
    4141426c:	75 09                	jne    41414277 <_Z5getsxPc+0x3d>
    4141426e:	48 8b 45 e8          	mov    -0x18(%rbp),%rax
    41414272:	c6 00 00             	movb   $0x0,(%rax)
    41414275:	eb 15                	jmp    4141428c <_Z5getsxPc+0x52>
    41414277:	48 8b 45 e8          	mov    -0x18(%rbp),%rax
    4141427b:	48 8d 50 01          	lea    0x1(%rax),%rdx
    4141427f:	48 89 55 e8          	mov    %rdx,-0x18(%rbp)
    41414283:	0f b6 55 ff          	movzbl -0x1(%rbp),%edx
    41414287:	88 10                	mov    %dl,(%rax)
    41414289:	eb bb                	jmp    41414246 <_Z5getsxPc+0xc>
    4141428b:	90                   	nop
    4141428c:	c9                   	leaveq 
    4141428d:	c3                   	retq   

000000004141428e <_Z12command_linev>:
    4141428e:	55                   	push   %rbp
    4141428f:	48 89 e5             	mov    %rsp,%rbp
    41414292:	53                   	push   %rbx
    41414293:	48 81 ec 28 01 00 00 	sub    $0x128,%rsp
    4141429a:	48 8d 3d ca 07 00 00 	lea    0x7ca(%rip),%rdi        # 41414a6b <_ZL4FLAG+0x2b>
    414142a1:	b8 00 00 00 00       	mov    $0x0,%eax
    414142a6:	e8 c5 c7 fe be       	callq  400a70 <printf@plt>
    414142ab:	48 8d 45 d0          	lea    -0x30(%rbp),%rax
    414142af:	48 89 c7             	mov    %rax,%rdi
    414142b2:	e8 83 ff ff ff       	callq  4141423a <_Z5getsxPc>
    414142b7:	8b 05 77 1e 20 00    	mov    0x201e77(%rip),%eax        # 41616134 <_ZL13cmds_executed>
    414142bd:	83 c0 01             	add    $0x1,%eax
    414142c0:	89 05 6e 1e 20 00    	mov    %eax,0x201e6e(%rip)        # 41616134 <_ZL13cmds_executed>
    414142c6:	48 8d 45 d0          	lea    -0x30(%rbp),%rax
    414142ca:	48 8d 35 9d 07 00 00 	lea    0x79d(%rip),%rsi        # 41414a6e <_ZL4FLAG+0x2e>
    414142d1:	48 89 c7             	mov    %rax,%rdi
    414142d4:	e8 c7 c8 fe be       	callq  400ba0 <strcmp@plt>
    414142d9:	85 c0                	test   %eax,%eax
    414142db:	75 11                	jne    414142ee <_Z12command_linev+0x60>
    414142dd:	48 8d 3d 8f 07 00 00 	lea    0x78f(%rip),%rdi        # 41414a73 <_ZL4FLAG+0x33>
    414142e4:	e8 a7 c7 fe be       	callq  400a90 <puts@plt>
    414142e9:	e9 4e 01 00 00       	jmpq   4141443c <_Z12command_linev+0x1ae>
    414142ee:	48 8d 45 d0          	lea    -0x30(%rbp),%rax
    414142f2:	48 8d 35 7f 07 00 00 	lea    0x77f(%rip),%rsi        # 41414a78 <_ZL4FLAG+0x38>
    414142f9:	48 89 c7             	mov    %rax,%rdi
    414142fc:	e8 9f c8 fe be       	callq  400ba0 <strcmp@plt>
    41414301:	85 c0                	test   %eax,%eax
    41414303:	75 0e                	jne    41414313 <_Z12command_linev+0x85>
    41414305:	48 8d 3d 74 07 00 00 	lea    0x774(%rip),%rdi        # 41414a80 <_ZL4FLAG+0x40>
    4141430c:	e8 7f c7 fe be       	callq  400a90 <puts@plt>
    41414311:	eb 87                	jmp    4141429a <_Z12command_linev+0xc>
    41414313:	48 8d 45 d0          	lea    -0x30(%rbp),%rax
    41414317:	48 8d 35 6e 07 00 00 	lea    0x76e(%rip),%rsi        # 41414a8c <_ZL4FLAG+0x4c>
    4141431e:	48 89 c7             	mov    %rax,%rdi
    41414321:	e8 7a c8 fe be       	callq  400ba0 <strcmp@plt>
    41414326:	85 c0                	test   %eax,%eax
    41414328:	75 29                	jne    41414353 <_Z12command_linev+0xc5>
    4141432a:	0f b6 05 07 1e 20 00 	movzbl 0x201e07(%rip),%eax        # 41616138 <_ZL13shell_enabled>
    41414331:	83 f0 01             	xor    $0x1,%eax
    41414334:	84 c0                	test   %al,%al
    41414336:	74 11                	je     41414349 <_Z12command_linev+0xbb>
    41414338:	48 8d 3d 59 07 00 00 	lea    0x759(%rip),%rdi        # 41414a98 <_ZL4FLAG+0x58>
    4141433f:	e8 4c c7 fe be       	callq  400a90 <puts@plt>
    41414344:	e9 51 ff ff ff       	jmpq   4141429a <_Z12command_linev+0xc>
    41414349:	e8 d9 fe ff ff       	callq  41414227 <_Z11debug_shellv>
    4141434e:	e9 47 ff ff ff       	jmpq   4141429a <_Z12command_linev+0xc>
    41414353:	48 8d 45 d0          	lea    -0x30(%rbp),%rax
    41414357:	ba 04 00 00 00       	mov    $0x4,%edx
    4141435c:	48 8d 35 60 07 00 00 	lea    0x760(%rip),%rsi        # 41414ac3 <_ZL4FLAG+0x83>
    41414363:	48 89 c7             	mov    %rax,%rdi
    41414366:	e8 65 c7 fe be       	callq  400ad0 <strncmp@plt>
    4141436b:	85 c0                	test   %eax,%eax
    4141436d:	75 24                	jne    41414393 <_Z12command_linev+0x105>
    4141436f:	48 8d 45 d0          	lea    -0x30(%rbp),%rax
    41414373:	48 83 c0 05          	add    $0x5,%rax
    41414377:	48 89 c7             	mov    %rax,%rdi
    4141437a:	b8 00 00 00 00       	mov    $0x0,%eax
    4141437f:	e8 ec c6 fe be       	callq  400a70 <printf@plt>
    41414384:	bf 0a 00 00 00       	mov    $0xa,%edi
    41414389:	e8 22 c7 fe be       	callq  400ab0 <putchar@plt>
    4141438e:	e9 07 ff ff ff       	jmpq   4141429a <_Z12command_linev+0xc>
    41414393:	48 8d 45 d0          	lea    -0x30(%rbp),%rax
    41414397:	48 8d 35 2a 07 00 00 	lea    0x72a(%rip),%rsi        # 41414ac8 <_ZL4FLAG+0x88>
    4141439e:	48 89 c7             	mov    %rax,%rdi
    414143a1:	e8 fa c7 fe be       	callq  400ba0 <strcmp@plt>
    414143a6:	85 c0                	test   %eax,%eax
    414143a8:	75 75                	jne    4141441f <_Z12command_linev+0x191>
    414143aa:	48 8d 3d 1d 07 00 00 	lea    0x71d(%rip),%rdi        # 41414ace <_ZL4FLAG+0x8e>
    414143b1:	e8 da c6 fe be       	callq  400a90 <puts@plt>
    414143b6:	8b 1d 78 1d 20 00    	mov    0x201d78(%rip),%ebx        # 41616134 <_ZL13cmds_executed>
    414143bc:	e8 2f c7 fe be       	callq  400af0 <getpid@plt>
    414143c1:	89 d9                	mov    %ebx,%ecx
    414143c3:	48 8d 15 6a 1d 20 00 	lea    0x201d6a(%rip),%rdx        # 41616134 <_ZL13cmds_executed>
    414143ca:	89 c6                	mov    %eax,%esi
    414143cc:	48 8d 3d 0c 07 00 00 	lea    0x70c(%rip),%rdi        # 41414adf <_ZL4FLAG+0x9f>
    414143d3:	b8 00 00 00 00       	mov    $0x0,%eax
    414143d8:	e8 93 c6 fe be       	callq  400a70 <printf@plt>
    414143dd:	e8 0e c7 fe be       	callq  400af0 <getpid@plt>
    414143e2:	89 c2                	mov    %eax,%edx
    414143e4:	48 8d 85 d0 fe ff ff 	lea    -0x130(%rbp),%rax
    414143eb:	48 8d 35 0a 07 00 00 	lea    0x70a(%rip),%rsi        # 41414afc <_ZL4FLAG+0xbc>
    414143f2:	48 89 c7             	mov    %rax,%rdi
    414143f5:	b8 00 00 00 00       	mov    $0x0,%eax
    414143fa:	e8 51 c7 fe be       	callq  400b50 <sprintf@plt>
    414143ff:	48 8d 3d 08 07 00 00 	lea    0x708(%rip),%rdi        # 41414b0e <_ZL4FLAG+0xce>
    41414406:	e8 85 c6 fe be       	callq  400a90 <puts@plt>
    4141440b:	48 8d 85 d0 fe ff ff 	lea    -0x130(%rbp),%rax
    41414412:	48 89 c7             	mov    %rax,%rdi
    41414415:	e8 c6 c6 fe be       	callq  400ae0 <system@plt>
    4141441a:	e9 7b fe ff ff       	jmpq   4141429a <_Z12command_linev+0xc>
    4141441f:	48 8d 45 d0          	lea    -0x30(%rbp),%rax
    41414423:	48 89 c6             	mov    %rax,%rsi
    41414426:	48 8d 3d ec 06 00 00 	lea    0x6ec(%rip),%rdi        # 41414b19 <_ZL4FLAG+0xd9>
    4141442d:	b8 00 00 00 00       	mov    $0x0,%eax
    41414432:	e8 39 c6 fe be       	callq  400a70 <printf@plt>
    41414437:	e9 5e fe ff ff       	jmpq   4141429a <_Z12command_linev+0xc>
    4141443c:	48 81 c4 28 01 00 00 	add    $0x128,%rsp
    41414443:	5b                   	pop    %rbx
    41414444:	5d                   	pop    %rbp
    41414445:	c3                   	retq   

0000000041414446 <_Z15secondary_loginv>:
    41414446:	55                   	push   %rbp
    41414447:	48 89 e5             	mov    %rsp,%rbp
    4141444a:	48 81 ec 90 00 00 00 	sub    $0x90,%rsp
    41414451:	48 8d 3d d8 06 00 00 	lea    0x6d8(%rip),%rdi        # 41414b30 <_ZL4FLAG+0xf0>
    41414458:	e8 33 c6 fe be       	callq  400a90 <puts@plt>
    4141445d:	48 8d 3d f4 06 00 00 	lea    0x6f4(%rip),%rdi        # 41414b58 <_ZL4FLAG+0x118>
    41414464:	e8 27 c6 fe be       	callq  400a90 <puts@plt>
    41414469:	48 8d 85 70 ff ff ff 	lea    -0x90(%rbp),%rax
    41414470:	48 89 c6             	mov    %rax,%rsi
    41414473:	48 8d 3d 06 07 00 00 	lea    0x706(%rip),%rdi        # 41414b80 <_ZL4FLAG+0x140>
    4141447a:	b8 00 00 00 00       	mov    $0x0,%eax
    4141447f:	e8 7c c6 fe be       	callq  400b00 <scanf@plt>
    41414484:	48 8d 85 70 ff ff ff 	lea    -0x90(%rbp),%rax
    4141448b:	48 89 c7             	mov    %rax,%rdi
    4141448e:	e8 7d c6 fe be       	callq  400b10 <strlen@plt>
    41414493:	48 89 45 f0          	mov    %rax,-0x10(%rbp)
    41414497:	48 c7 45 f8 00 00 00 	movq   $0x0,-0x8(%rbp)
    4141449e:	00 
    4141449f:	48 8b 45 f8          	mov    -0x8(%rbp),%rax
    414144a3:	48 3b 45 f0          	cmp    -0x10(%rbp),%rax
    414144a7:	73 2d                	jae    414144d6 <_Z15secondary_loginv+0x90>
    414144a9:	48 8d 95 70 ff ff ff 	lea    -0x90(%rbp),%rdx
    414144b0:	48 8b 45 f8          	mov    -0x8(%rbp),%rax
    414144b4:	48 01 d0             	add    %rdx,%rax
    414144b7:	0f b6 00             	movzbl (%rax),%eax
    414144ba:	83 f0 c7             	xor    $0xffffffc7,%eax
    414144bd:	89 c1                	mov    %eax,%ecx
    414144bf:	48 8d 95 70 ff ff ff 	lea    -0x90(%rbp),%rdx
    414144c6:	48 8b 45 f8          	mov    -0x8(%rbp),%rax
    414144ca:	48 01 d0             	add    %rdx,%rax
    414144cd:	88 08                	mov    %cl,(%rax)
    414144cf:	48 83 45 f8 01       	addq   $0x1,-0x8(%rbp)
    414144d4:	eb c9                	jmp    4141449f <_Z15secondary_loginv+0x59>
    414144d6:	48 83 7d f0 23       	cmpq   $0x23,-0x10(%rbp)
    414144db:	75 5a                	jne    41414537 <_Z15secondary_loginv+0xf1>
    414144dd:	48 8b 05 5c 05 00 00 	mov    0x55c(%rip),%rax        # 41414a40 <_ZL4FLAG>
    414144e4:	48 8b 15 5d 05 00 00 	mov    0x55d(%rip),%rdx        # 41414a48 <_ZL4FLAG+0x8>
    414144eb:	48 89 85 70 ff ff ff 	mov    %rax,-0x90(%rbp)
    414144f2:	48 89 95 78 ff ff ff 	mov    %rdx,-0x88(%rbp)
    414144f9:	48 8b 05 50 05 00 00 	mov    0x550(%rip),%rax        # 41414a50 <_ZL4FLAG+0x10>
    41414500:	48 8b 15 51 05 00 00 	mov    0x551(%rip),%rdx        # 41414a58 <_ZL4FLAG+0x18>
    41414507:	48 89 45 80          	mov    %rax,-0x80(%rbp)
    4141450b:	48 89 55 88          	mov    %rdx,-0x78(%rbp)
    4141450f:	0f b7 05 4a 05 00 00 	movzwl 0x54a(%rip),%eax        # 41414a60 <_ZL4FLAG+0x20>
    41414516:	66 89 45 90          	mov    %ax,-0x70(%rbp)
    4141451a:	0f b6 05 41 05 00 00 	movzbl 0x541(%rip),%eax        # 41414a62 <_ZL4FLAG+0x22>
    41414521:	88 45 92             	mov    %al,-0x6e(%rbp)
    41414524:	48 8d 85 70 ff ff ff 	lea    -0x90(%rbp),%rax
    4141452b:	48 85 c0             	test   %rax,%rax
    4141452e:	74 07                	je     41414537 <_Z15secondary_loginv+0xf1>
    41414530:	b8 01 00 00 00       	mov    $0x1,%eax
    41414535:	eb 05                	jmp    4141453c <_Z15secondary_loginv+0xf6>
    41414537:	b8 00 00 00 00       	mov    $0x0,%eax
    4141453c:	84 c0                	test   %al,%al
    4141453e:	74 13                	je     41414553 <_Z15secondary_loginv+0x10d>
    41414540:	48 8d 3d 3f 06 00 00 	lea    0x63f(%rip),%rdi        # 41414b86 <_ZL4FLAG+0x146>
    41414547:	e8 44 c5 fe be       	callq  400a90 <puts@plt>
    4141454c:	e8 3d fd ff ff       	callq  4141428e <_Z12command_linev>
    41414551:	eb 16                	jmp    41414569 <_Z15secondary_loginv+0x123>
    41414553:	48 8d 3d 3a 06 00 00 	lea    0x63a(%rip),%rdi        # 41414b94 <_ZL4FLAG+0x154>
    4141455a:	e8 31 c5 fe be       	callq  400a90 <puts@plt>
    4141455f:	bf 01 00 00 00       	mov    $0x1,%edi
    41414564:	e8 37 c5 fe be       	callq  400aa0 <exit@plt>
    41414569:	c9                   	leaveq 
    4141456a:	c3                   	retq   

000000004141456b <_Z13primary_loginv>:
    4141456b:	55                   	push   %rbp
    4141456c:	48 89 e5             	mov    %rsp,%rbp
    4141456f:	48 81 ec 10 01 00 00 	sub    $0x110,%rsp
    41414576:	48 8d 3d 2b 06 00 00 	lea    0x62b(%rip),%rdi        # 41414ba8 <_ZL4FLAG+0x168>
    4141457d:	e8 0e c5 fe be       	callq  400a90 <puts@plt>
    41414582:	be 00 00 00 00       	mov    $0x0,%esi
    41414587:	48 8d 3d 9e 04 00 00 	lea    0x49e(%rip),%rdi        # 41414a2c <_ZL9FLAG_FILE>
    4141458e:	b8 00 00 00 00       	mov    $0x0,%eax
    41414593:	e8 48 c6 fe be       	callq  400be0 <open@plt>
    41414598:	89 45 fc             	mov    %eax,-0x4(%rbp)
    4141459b:	48 8d 95 70 ff ff ff 	lea    -0x90(%rbp),%rdx
    414145a2:	b8 00 00 00 00       	mov    $0x0,%eax
    414145a7:	b9 10 00 00 00       	mov    $0x10,%ecx
    414145ac:	48 89 d7             	mov    %rdx,%rdi
    414145af:	f3 48 ab             	rep stos %rax,%es:(%rdi)
    414145b2:	83 7d fc ff          	cmpl   $0xffffffff,-0x4(%rbp)
    414145b6:	75 16                	jne    414145ce <_Z13primary_loginv+0x63>
    414145b8:	48 8d 3d 15 06 00 00 	lea    0x615(%rip),%rdi        # 41414bd4 <_ZL4FLAG+0x194>
    414145bf:	e8 cc c4 fe be       	callq  400a90 <puts@plt>
    414145c4:	bf 01 00 00 00       	mov    $0x1,%edi
    414145c9:	e8 d2 c4 fe be       	callq  400aa0 <exit@plt>
    414145ce:	48 8d 8d 70 ff ff ff 	lea    -0x90(%rbp),%rcx
    414145d5:	8b 45 fc             	mov    -0x4(%rbp),%eax
    414145d8:	ba 7f 00 00 00       	mov    $0x7f,%edx
    414145dd:	48 89 ce             	mov    %rcx,%rsi
    414145e0:	89 c7                	mov    %eax,%edi
    414145e2:	e8 d9 c4 fe be       	callq  400ac0 <read@plt>
    414145e7:	8b 45 fc             	mov    -0x4(%rbp),%eax
    414145ea:	89 c7                	mov    %eax,%edi
    414145ec:	e8 8f c4 fe be       	callq  400a80 <close@plt>
    414145f1:	48 8d 85 f0 fe ff ff 	lea    -0x110(%rbp),%rax
    414145f8:	48 89 c6             	mov    %rax,%rsi
    414145fb:	48 8d 3d 7e 05 00 00 	lea    0x57e(%rip),%rdi        # 41414b80 <_ZL4FLAG+0x140>
    41414602:	b8 00 00 00 00       	mov    $0x0,%eax
    41414607:	e8 f4 c4 fe be       	callq  400b00 <scanf@plt>
    4141460c:	48 8d 95 70 ff ff ff 	lea    -0x90(%rbp),%rdx
    41414613:	48 8d 85 f0 fe ff ff 	lea    -0x110(%rbp),%rax
    4141461a:	48 89 d6             	mov    %rdx,%rsi
    4141461d:	48 89 c7             	mov    %rax,%rdi
    41414620:	e8 7b c5 fe be       	callq  400ba0 <strcmp@plt>
    41414625:	85 c0                	test   %eax,%eax
    41414627:	75 07                	jne    41414630 <_Z13primary_loginv+0xc5>
    41414629:	e8 18 fe ff ff       	callq  41414446 <_Z15secondary_loginv>
    4141462e:	eb 16                	jmp    41414646 <_Z13primary_loginv+0xdb>
    41414630:	48 8d 3d b9 05 00 00 	lea    0x5b9(%rip),%rdi        # 41414bf0 <_ZL4FLAG+0x1b0>
    41414637:	e8 54 c4 fe be       	callq  400a90 <puts@plt>
    4141463c:	bf 01 00 00 00       	mov    $0x1,%edi
    41414641:	e8 5a c4 fe be       	callq  400aa0 <exit@plt>
    41414646:	c9                   	leaveq 
    41414647:	c3                   	retq   

0000000041414648 <main>:
    41414648:	55                   	push   %rbp
    41414649:	48 89 e5             	mov    %rsp,%rbp
    4141464c:	48 81 ec e0 01 00 00 	sub    $0x1e0,%rsp
    41414653:	89 bd 2c fe ff ff    	mov    %edi,-0x1d4(%rbp)
    41414659:	48 89 b5 20 fe ff ff 	mov    %rsi,-0x1e0(%rbp)
    41414660:	48 8b 05 99 1a 20 00 	mov    0x201a99(%rip),%rax        # 41616100 <stdin@@GLIBC_2.2.5>
    41414667:	be 00 00 00 00       	mov    $0x0,%esi
    4141466c:	48 89 c7             	mov    %rax,%rdi
    4141466f:	e8 fc c4 fe be       	callq  400b70 <setbuf@plt>
    41414674:	48 8b 05 ad 1a 20 00 	mov    0x201aad(%rip),%rax        # 41616128 <stdout@@GLIBC_2.2.5>
    4141467b:	be 00 00 00 00       	mov    $0x0,%esi
    41414680:	48 89 c7             	mov    %rax,%rdi
    41414683:	e8 e8 c4 fe be       	callq  400b70 <setbuf@plt>
    41414688:	48 8b 05 91 1a 20 00 	mov    0x201a91(%rip),%rax        # 41616120 <stderr@@GLIBC_2.2.5>
    4141468f:	be 00 00 00 00       	mov    $0x0,%esi
    41414694:	48 89 c7             	mov    %rax,%rdi
    41414697:	e8 d4 c4 fe be       	callq  400b70 <setbuf@plt>
    4141469c:	48 8d 3d 7c 05 00 00 	lea    0x57c(%rip),%rdi        # 41414c1f <_ZL4FLAG+0x1df>
    414146a3:	e8 e8 c3 fe be       	callq  400a90 <puts@plt>
    414146a8:	48 8d 3d 8d 05 00 00 	lea    0x58d(%rip),%rdi        # 41414c3c <_ZL4FLAG+0x1fc>
    414146af:	e8 dc c3 fe be       	callq  400a90 <puts@plt>
    414146b4:	48 8d 3d 94 05 00 00 	lea    0x594(%rip),%rdi        # 41414c4f <_ZL4FLAG+0x20f>
    414146bb:	e8 d0 c3 fe be       	callq  400a90 <puts@plt>
    414146c0:	48 8d 3d a2 05 00 00 	lea    0x5a2(%rip),%rdi        # 41414c69 <_ZL4FLAG+0x229>
    414146c7:	e8 c4 c3 fe be       	callq  400a90 <puts@plt>
    414146cc:	48 8d 45 d4          	lea    -0x2c(%rbp),%rax
    414146d0:	48 89 c6             	mov    %rax,%rsi
    414146d3:	48 8d 3d 98 05 00 00 	lea    0x598(%rip),%rdi        # 41414c72 <_ZL4FLAG+0x232>
    414146da:	b8 00 00 00 00       	mov    $0x0,%eax
    414146df:	e8 1c c4 fe be       	callq  400b00 <scanf@plt>
    414146e4:	83 f8 01             	cmp    $0x1,%eax
    414146e7:	75 0f                	jne    414146f8 <main+0xb0>
    414146e9:	8b 45 d4             	mov    -0x2c(%rbp),%eax
    414146ec:	85 c0                	test   %eax,%eax
    414146ee:	7e 08                	jle    414146f8 <main+0xb0>
    414146f0:	8b 45 d4             	mov    -0x2c(%rbp),%eax
    414146f3:	83 f8 03             	cmp    $0x3,%eax
    414146f6:	7e 07                	jle    414146ff <main+0xb7>
    414146f8:	b8 01 00 00 00       	mov    $0x1,%eax
    414146fd:	eb 05                	jmp    41414704 <main+0xbc>
    414146ff:	b8 00 00 00 00       	mov    $0x0,%eax
    41414704:	84 c0                	test   %al,%al
    41414706:	74 2e                	je     41414736 <main+0xee>
    41414708:	48 8d 3d 66 05 00 00 	lea    0x566(%rip),%rdi        # 41414c75 <_ZL4FLAG+0x235>
    4141470f:	e8 7c c3 fe be       	callq  400a90 <puts@plt>
    41414714:	c6 45 ff 00          	movb   $0x0,-0x1(%rbp)
    41414718:	80 7d ff 00          	cmpb   $0x0,-0x1(%rbp)
    4141471c:	75 ae                	jne    414146cc <main+0x84>
    4141471e:	e8 5d c4 fe be       	callq  400b80 <getchar@plt>
    41414723:	83 f8 ff             	cmp    $0xffffffff,%eax
    41414726:	74 07                	je     4141472f <main+0xe7>
    41414728:	83 f8 0a             	cmp    $0xa,%eax
    4141472b:	74 02                	je     4141472f <main+0xe7>
    4141472d:	eb 05                	jmp    41414734 <main+0xec>
    4141472f:	c6 45 ff 01          	movb   $0x1,-0x1(%rbp)
    41414733:	90                   	nop
    41414734:	eb e2                	jmp    41414718 <main+0xd0>
    41414736:	8b 45 d4             	mov    -0x2c(%rbp),%eax
    41414739:	83 f8 02             	cmp    $0x2,%eax
    4141473c:	74 1c                	je     4141475a <main+0x112>
    4141473e:	83 f8 03             	cmp    $0x3,%eax
    41414741:	0f 84 e7 01 00 00    	je     4141492e <main+0x2e6>
    41414747:	83 f8 01             	cmp    $0x1,%eax
    4141474a:	0f 85 e5 01 00 00    	jne    41414935 <main+0x2ed>
    41414750:	e8 16 fe ff ff       	callq  4141456b <_Z13primary_loginv>
    41414755:	e9 db 01 00 00       	jmpq   41414935 <main+0x2ed>
    4141475a:	48 8d 85 c0 fe ff ff 	lea    -0x140(%rbp),%rax
    41414761:	ba 0c 01 00 00       	mov    $0x10c,%edx
    41414766:	48 8d 35 b3 02 00 00 	lea    0x2b3(%rip),%rsi        # 41414a20 <_ZL20PATCHNOTES_DIRECTORY>
    4141476d:	48 89 c7             	mov    %rax,%rdi
    41414770:	e8 3b c4 fe be       	callq  400bb0 <strncpy@plt>
    41414775:	48 8d 3d a4 02 00 00 	lea    0x2a4(%rip),%rdi        # 41414a20 <_ZL20PATCHNOTES_DIRECTORY>
    4141477c:	e8 9f c3 fe be       	callq  400b20 <opendir@plt>
    41414781:	48 89 45 f0          	mov    %rax,-0x10(%rbp)
    41414785:	48 83 7d f0 00       	cmpq   $0x0,-0x10(%rbp)
    4141478a:	75 11                	jne    4141479d <main+0x155>
    4141478c:	48 8d 3d f1 04 00 00 	lea    0x4f1(%rip),%rdi        # 41414c84 <_ZL4FLAG+0x244>
    41414793:	e8 f8 c2 fe be       	callq  400a90 <puts@plt>
    41414798:	e9 d1 00 00 00       	jmpq   4141486e <main+0x226>
    4141479d:	48 8d 3d fc 04 00 00 	lea    0x4fc(%rip),%rdi        # 41414ca0 <_ZL4FLAG+0x260>
    414147a4:	e8 e7 c2 fe be       	callq  400a90 <puts@plt>
    414147a9:	48 8b 45 f0          	mov    -0x10(%rbp),%rax
    414147ad:	48 89 c7             	mov    %rax,%rdi
    414147b0:	e8 8b c3 fe be       	callq  400b40 <readdir@plt>
    414147b5:	48 89 45 e8          	mov    %rax,-0x18(%rbp)
    414147b9:	48 83 7d e8 00       	cmpq   $0x0,-0x18(%rbp)
    414147be:	0f 95 c0             	setne  %al
    414147c1:	84 c0                	test   %al,%al
    414147c3:	0f 84 99 00 00 00    	je     41414862 <main+0x21a>
    414147c9:	48 8b 45 e8          	mov    -0x18(%rbp),%rax
    414147cd:	48 8d 48 13          	lea    0x13(%rax),%rcx
    414147d1:	48 8d 85 c0 fe ff ff 	lea    -0x140(%rbp),%rax
    414147d8:	48 83 c0 0b          	add    $0xb,%rax
    414147dc:	ba 00 01 00 00       	mov    $0x100,%edx
    414147e1:	48 89 ce             	mov    %rcx,%rsi
    414147e4:	48 89 c7             	mov    %rax,%rdi
    414147e7:	e8 c4 c3 fe be       	callq  400bb0 <strncpy@plt>
    414147ec:	48 8d 95 30 fe ff ff 	lea    -0x1d0(%rbp),%rdx
    414147f3:	48 8d 85 c0 fe ff ff 	lea    -0x140(%rbp),%rax
    414147fa:	48 89 d6             	mov    %rdx,%rsi
    414147fd:	48 89 c7             	mov    %rax,%rdi
    41414800:	e8 cb 01 00 00       	callq  414149d0 <__stat>
    41414805:	83 f8 ff             	cmp    $0xffffffff,%eax
    41414808:	0f 94 c0             	sete   %al
    4141480b:	84 c0                	test   %al,%al
    4141480d:	74 1d                	je     4141482c <main+0x1e4>
    4141480f:	48 8d 85 c0 fe ff ff 	lea    -0x140(%rbp),%rax
    41414816:	48 89 c6             	mov    %rax,%rsi
    41414819:	48 8d 3d a5 04 00 00 	lea    0x4a5(%rip),%rdi        # 41414cc5 <_ZL4FLAG+0x285>
    41414820:	b8 00 00 00 00       	mov    $0x0,%eax
    41414825:	e8 46 c2 fe be       	callq  400a70 <printf@plt>
    4141482a:	eb 31                	jmp    4141485d <main+0x215>
    4141482c:	8b 85 48 fe ff ff    	mov    -0x1b8(%rbp),%eax
    41414832:	25 00 80 00 00       	and    $0x8000,%eax
    41414837:	85 c0                	test   %eax,%eax
    41414839:	74 21                	je     4141485c <main+0x214>
    4141483b:	48 8b 45 e8          	mov    -0x18(%rbp),%rax
    4141483f:	48 83 c0 13          	add    $0x13,%rax
    41414843:	48 89 c6             	mov    %rax,%rsi
    41414846:	48 8d 3d 8f 04 00 00 	lea    0x48f(%rip),%rdi        # 41414cdc <_ZL4FLAG+0x29c>
    4141484d:	b8 00 00 00 00       	mov    $0x0,%eax
    41414852:	e8 19 c2 fe be       	callq  400a70 <printf@plt>
    41414857:	e9 4d ff ff ff       	jmpq   414147a9 <main+0x161>
    4141485c:	90                   	nop
    4141485d:	e9 47 ff ff ff       	jmpq   414147a9 <main+0x161>
    41414862:	48 8b 45 f0          	mov    -0x10(%rbp),%rax
    41414866:	48 89 c7             	mov    %rax,%rdi
    41414869:	e8 52 c3 fe be       	callq  400bc0 <closedir@plt>
    4141486e:	48 8d 3d 73 04 00 00 	lea    0x473(%rip),%rdi        # 41414ce8 <_ZL4FLAG+0x2a8>
    41414875:	e8 16 c2 fe be       	callq  400a90 <puts@plt>
    4141487a:	48 8d 85 c0 fe ff ff 	lea    -0x140(%rbp),%rax
    41414881:	48 83 c0 0b          	add    $0xb,%rax
    41414885:	48 89 c6             	mov    %rax,%rsi
    41414888:	48 8d 3d 7b 04 00 00 	lea    0x47b(%rip),%rdi        # 41414d0a <_ZL4FLAG+0x2ca>
    4141488f:	b8 00 00 00 00       	mov    $0x0,%eax
    41414894:	e8 67 c2 fe be       	callq  400b00 <scanf@plt>
    41414899:	48 8d 85 c0 fe ff ff 	lea    -0x140(%rbp),%rax
    414148a0:	be 00 00 00 00       	mov    $0x0,%esi
    414148a5:	48 89 c7             	mov    %rax,%rdi
    414148a8:	b8 00 00 00 00       	mov    $0x0,%eax
    414148ad:	e8 2e c3 fe be       	callq  400be0 <open@plt>
    414148b2:	89 45 e4             	mov    %eax,-0x1c(%rbp)
    414148b5:	83 7d e4 ff          	cmpl   $0xffffffff,-0x1c(%rbp)
    414148b9:	75 24                	jne    414148df <main+0x297>
    414148bb:	e8 d0 c2 fe be       	callq  400b90 <__errno_location@plt>
    414148c0:	8b 00                	mov    (%rax),%eax
    414148c2:	89 c7                	mov    %eax,%edi
    414148c4:	e8 97 c2 fe be       	callq  400b60 <strerror@plt>
    414148c9:	48 89 c6             	mov    %rax,%rsi
    414148cc:	48 8d 3d 3d 04 00 00 	lea    0x43d(%rip),%rdi        # 41414d10 <_ZL4FLAG+0x2d0>
    414148d3:	b8 00 00 00 00       	mov    $0x0,%eax
    414148d8:	e8 93 c1 fe be       	callq  400a70 <printf@plt>
    414148dd:	eb 56                	jmp    41414935 <main+0x2ed>
    414148df:	48 8d 8d c0 fe ff ff 	lea    -0x140(%rbp),%rcx
    414148e6:	8b 45 e4             	mov    -0x1c(%rbp),%eax
    414148e9:	ba 0c 01 00 00       	mov    $0x10c,%edx
    414148ee:	48 89 ce             	mov    %rcx,%rsi
    414148f1:	89 c7                	mov    %eax,%edi
    414148f3:	e8 c8 c1 fe be       	callq  400ac0 <read@plt>
    414148f8:	48 89 45 d8          	mov    %rax,-0x28(%rbp)
    414148fc:	48 83 7d d8 00       	cmpq   $0x0,-0x28(%rbp)
    41414901:	0f 9f c0             	setg   %al
    41414904:	84 c0                	test   %al,%al
    41414906:	74 1a                	je     41414922 <main+0x2da>
    41414908:	48 8b 55 d8          	mov    -0x28(%rbp),%rdx
    4141490c:	48 8d 85 c0 fe ff ff 	lea    -0x140(%rbp),%rax
    41414913:	48 89 c6             	mov    %rax,%rsi
    41414916:	bf 01 00 00 00       	mov    $0x1,%edi
    4141491b:	e8 b0 c2 fe be       	callq  400bd0 <write@plt>
    41414920:	eb bd                	jmp    414148df <main+0x297>
    41414922:	8b 45 e4             	mov    -0x1c(%rbp),%eax
    41414925:	89 c7                	mov    %eax,%edi
    41414927:	e8 54 c1 fe be       	callq  400a80 <close@plt>
    4141492c:	eb 07                	jmp    41414935 <main+0x2ed>
    4141492e:	b8 00 00 00 00       	mov    $0x0,%eax
    41414933:	eb 0f                	jmp    41414944 <main+0x2fc>
    41414935:	bf 00 00 00 00       	mov    $0x0,%edi
    4141493a:	e8 b1 c2 fe be       	callq  400bf0 <fflush@plt>
    4141493f:	e9 58 fd ff ff       	jmpq   4141469c <main+0x54>
    41414944:	c9                   	leaveq 
    41414945:	c3                   	retq   
    41414946:	66 2e 0f 1f 84 00 00 	nopw   %cs:0x0(%rax,%rax,1)
    4141494d:	00 00 00 

0000000041414950 <__libc_csu_init>:
    41414950:	41 57                	push   %r15
    41414952:	41 56                	push   %r14
    41414954:	41 89 ff             	mov    %edi,%r15d
    41414957:	41 55                	push   %r13
    41414959:	41 54                	push   %r12
    4141495b:	4c 8d 25 7e 14 20 00 	lea    0x20147e(%rip),%r12        # 41615de0 <__frame_dummy_init_array_entry>
    41414962:	55                   	push   %rbp
    41414963:	48 8d 2d 7e 14 20 00 	lea    0x20147e(%rip),%rbp        # 41615de8 <__init_array_end>
    4141496a:	53                   	push   %rbx
    4141496b:	49 89 f6             	mov    %rsi,%r14
    4141496e:	49 89 d5             	mov    %rdx,%r13
    41414971:	4c 29 e5             	sub    %r12,%rbp
    41414974:	48 83 ec 08          	sub    $0x8,%rsp
    41414978:	48 c1 fd 03          	sar    $0x3,%rbp
    4141497c:	e8 bf c0 fe be       	callq  400a40 <_init>
    41414981:	48 85 ed             	test   %rbp,%rbp
    41414984:	74 20                	je     414149a6 <__libc_csu_init+0x56>
    41414986:	31 db                	xor    %ebx,%ebx
    41414988:	0f 1f 84 00 00 00 00 	nopl   0x0(%rax,%rax,1)
    4141498f:	00 
    41414990:	4c 89 ea             	mov    %r13,%rdx
    41414993:	4c 89 f6             	mov    %r14,%rsi
    41414996:	44 89 ff             	mov    %r15d,%edi
    41414999:	41 ff 14 dc          	callq  *(%r12,%rbx,8)
    4141499d:	48 83 c3 01          	add    $0x1,%rbx
    414149a1:	48 39 dd             	cmp    %rbx,%rbp
    414149a4:	75 ea                	jne    41414990 <__libc_csu_init+0x40>
    414149a6:	48 83 c4 08          	add    $0x8,%rsp
    414149aa:	5b                   	pop    %rbx
    414149ab:	5d                   	pop    %rbp
    414149ac:	41 5c                	pop    %r12
    414149ae:	41 5d                	pop    %r13
    414149b0:	41 5e                	pop    %r14
    414149b2:	41 5f                	pop    %r15
    414149b4:	c3                   	retq   
    414149b5:	90                   	nop
    414149b6:	66 2e 0f 1f 84 00 00 	nopw   %cs:0x0(%rax,%rax,1)
    414149bd:	00 00 00 

00000000414149c0 <__libc_csu_fini>:
    414149c0:	f3 c3                	repz retq 
    414149c2:	66 2e 0f 1f 84 00 00 	nopw   %cs:0x0(%rax,%rax,1)
    414149c9:	00 00 00 
    414149cc:	0f 1f 40 00          	nopl   0x0(%rax)

00000000414149d0 <__stat>:
    414149d0:	48 89 f2             	mov    %rsi,%rdx
    414149d3:	48 89 fe             	mov    %rdi,%rsi
    414149d6:	bf 01 00 00 00       	mov    $0x1,%edi
    414149db:	e9 50 c1 fe be       	jmpq   400b30 <__xstat@plt>

Disassembly of section .init:

0000000000400a40 <_init>:
  400a40:	48 83 ec 08          	sub    $0x8,%rsp
  400a44:	48 8b 05 a5 55 21 41 	mov    0x412155a5(%rip),%rax        # 41615ff0 <__gmon_start__>
  400a4b:	48 85 c0             	test   %rax,%rax
  400a4e:	74 02                	je     400a52 <_init+0x12>
  400a50:	ff d0                	callq  *%rax
  400a52:	48 83 c4 08          	add    $0x8,%rsp
  400a56:	c3                   	retq   

Disassembly of section .plt:

0000000000400a60 <.plt>:
  400a60:	ff 35 a2 55 21 41    	pushq  0x412155a2(%rip)        # 41616008 <_GLOBAL_OFFSET_TABLE_+0x8>
  400a66:	ff 25 a4 55 21 41    	jmpq   *0x412155a4(%rip)        # 41616010 <_GLOBAL_OFFSET_TABLE_+0x10>
  400a6c:	0f 1f 40 00          	nopl   0x0(%rax)

0000000000400a70 <printf@plt>:
  400a70:	ff 25 a2 55 21 41    	jmpq   *0x412155a2(%rip)        # 41616018 <printf@GLIBC_2.2.5>
  400a76:	68 00 00 00 00       	pushq  $0x0
  400a7b:	e9 e0 ff ff ff       	jmpq   400a60 <.plt>

0000000000400a80 <close@plt>:
  400a80:	ff 25 9a 55 21 41    	jmpq   *0x4121559a(%rip)        # 41616020 <close@GLIBC_2.2.5>
  400a86:	68 01 00 00 00       	pushq  $0x1
  400a8b:	e9 d0 ff ff ff       	jmpq   400a60 <.plt>

0000000000400a90 <puts@plt>:
  400a90:	ff 25 92 55 21 41    	jmpq   *0x41215592(%rip)        # 41616028 <puts@GLIBC_2.2.5>
  400a96:	68 02 00 00 00       	pushq  $0x2
  400a9b:	e9 c0 ff ff ff       	jmpq   400a60 <.plt>

0000000000400aa0 <exit@plt>:
  400aa0:	ff 25 8a 55 21 41    	jmpq   *0x4121558a(%rip)        # 41616030 <exit@GLIBC_2.2.5>
  400aa6:	68 03 00 00 00       	pushq  $0x3
  400aab:	e9 b0 ff ff ff       	jmpq   400a60 <.plt>

0000000000400ab0 <putchar@plt>:
  400ab0:	ff 25 82 55 21 41    	jmpq   *0x41215582(%rip)        # 41616038 <putchar@GLIBC_2.2.5>
  400ab6:	68 04 00 00 00       	pushq  $0x4
  400abb:	e9 a0 ff ff ff       	jmpq   400a60 <.plt>

0000000000400ac0 <read@plt>:
  400ac0:	ff 25 7a 55 21 41    	jmpq   *0x4121557a(%rip)        # 41616040 <read@GLIBC_2.2.5>
  400ac6:	68 05 00 00 00       	pushq  $0x5
  400acb:	e9 90 ff ff ff       	jmpq   400a60 <.plt>

0000000000400ad0 <strncmp@plt>:
  400ad0:	ff 25 72 55 21 41    	jmpq   *0x41215572(%rip)        # 41616048 <strncmp@GLIBC_2.2.5>
  400ad6:	68 06 00 00 00       	pushq  $0x6
  400adb:	e9 80 ff ff ff       	jmpq   400a60 <.plt>

0000000000400ae0 <system@plt>:
  400ae0:	ff 25 6a 55 21 41    	jmpq   *0x4121556a(%rip)        # 41616050 <system@GLIBC_2.2.5>
  400ae6:	68 07 00 00 00       	pushq  $0x7
  400aeb:	e9 70 ff ff ff       	jmpq   400a60 <.plt>

0000000000400af0 <getpid@plt>:
  400af0:	ff 25 62 55 21 41    	jmpq   *0x41215562(%rip)        # 41616058 <getpid@GLIBC_2.2.5>
  400af6:	68 08 00 00 00       	pushq  $0x8
  400afb:	e9 60 ff ff ff       	jmpq   400a60 <.plt>

0000000000400b00 <scanf@plt>:
  400b00:	ff 25 5a 55 21 41    	jmpq   *0x4121555a(%rip)        # 41616060 <scanf@GLIBC_2.2.5>
  400b06:	68 09 00 00 00       	pushq  $0x9
  400b0b:	e9 50 ff ff ff       	jmpq   400a60 <.plt>

0000000000400b10 <strlen@plt>:
  400b10:	ff 25 52 55 21 41    	jmpq   *0x41215552(%rip)        # 41616068 <strlen@GLIBC_2.2.5>
  400b16:	68 0a 00 00 00       	pushq  $0xa
  400b1b:	e9 40 ff ff ff       	jmpq   400a60 <.plt>

0000000000400b20 <opendir@plt>:
  400b20:	ff 25 4a 55 21 41    	jmpq   *0x4121554a(%rip)        # 41616070 <opendir@GLIBC_2.2.5>
  400b26:	68 0b 00 00 00       	pushq  $0xb
  400b2b:	e9 30 ff ff ff       	jmpq   400a60 <.plt>

0000000000400b30 <__xstat@plt>:
  400b30:	ff 25 42 55 21 41    	jmpq   *0x41215542(%rip)        # 41616078 <__xstat@GLIBC_2.2.5>
  400b36:	68 0c 00 00 00       	pushq  $0xc
  400b3b:	e9 20 ff ff ff       	jmpq   400a60 <.plt>

0000000000400b40 <readdir@plt>:
  400b40:	ff 25 3a 55 21 41    	jmpq   *0x4121553a(%rip)        # 41616080 <readdir@GLIBC_2.2.5>
  400b46:	68 0d 00 00 00       	pushq  $0xd
  400b4b:	e9 10 ff ff ff       	jmpq   400a60 <.plt>

0000000000400b50 <sprintf@plt>:
  400b50:	ff 25 32 55 21 41    	jmpq   *0x41215532(%rip)        # 41616088 <sprintf@GLIBC_2.2.5>
  400b56:	68 0e 00 00 00       	pushq  $0xe
  400b5b:	e9 00 ff ff ff       	jmpq   400a60 <.plt>

0000000000400b60 <strerror@plt>:
  400b60:	ff 25 2a 55 21 41    	jmpq   *0x4121552a(%rip)        # 41616090 <strerror@GLIBC_2.2.5>
  400b66:	68 0f 00 00 00       	pushq  $0xf
  400b6b:	e9 f0 fe ff ff       	jmpq   400a60 <.plt>

0000000000400b70 <setbuf@plt>:
  400b70:	ff 25 22 55 21 41    	jmpq   *0x41215522(%rip)        # 41616098 <setbuf@GLIBC_2.2.5>
  400b76:	68 10 00 00 00       	pushq  $0x10
  400b7b:	e9 e0 fe ff ff       	jmpq   400a60 <.plt>

0000000000400b80 <getchar@plt>:
  400b80:	ff 25 1a 55 21 41    	jmpq   *0x4121551a(%rip)        # 416160a0 <getchar@GLIBC_2.2.5>
  400b86:	68 11 00 00 00       	pushq  $0x11
  400b8b:	e9 d0 fe ff ff       	jmpq   400a60 <.plt>

0000000000400b90 <__errno_location@plt>:
  400b90:	ff 25 12 55 21 41    	jmpq   *0x41215512(%rip)        # 416160a8 <__errno_location@GLIBC_2.2.5>
  400b96:	68 12 00 00 00       	pushq  $0x12
  400b9b:	e9 c0 fe ff ff       	jmpq   400a60 <.plt>

0000000000400ba0 <strcmp@plt>:
  400ba0:	ff 25 0a 55 21 41    	jmpq   *0x4121550a(%rip)        # 416160b0 <strcmp@GLIBC_2.2.5>
  400ba6:	68 13 00 00 00       	pushq  $0x13
  400bab:	e9 b0 fe ff ff       	jmpq   400a60 <.plt>

0000000000400bb0 <strncpy@plt>:
  400bb0:	ff 25 02 55 21 41    	jmpq   *0x41215502(%rip)        # 416160b8 <strncpy@GLIBC_2.2.5>
  400bb6:	68 14 00 00 00       	pushq  $0x14
  400bbb:	e9 a0 fe ff ff       	jmpq   400a60 <.plt>

0000000000400bc0 <closedir@plt>:
  400bc0:	ff 25 fa 54 21 41    	jmpq   *0x412154fa(%rip)        # 416160c0 <closedir@GLIBC_2.2.5>
  400bc6:	68 15 00 00 00       	pushq  $0x15
  400bcb:	e9 90 fe ff ff       	jmpq   400a60 <.plt>

0000000000400bd0 <write@plt>:
  400bd0:	ff 25 f2 54 21 41    	jmpq   *0x412154f2(%rip)        # 416160c8 <write@GLIBC_2.2.5>
  400bd6:	68 16 00 00 00       	pushq  $0x16
  400bdb:	e9 80 fe ff ff       	jmpq   400a60 <.plt>

0000000000400be0 <open@plt>:
  400be0:	ff 25 ea 54 21 41    	jmpq   *0x412154ea(%rip)        # 416160d0 <open@GLIBC_2.2.5>
  400be6:	68 17 00 00 00       	pushq  $0x17
  400beb:	e9 70 fe ff ff       	jmpq   400a60 <.plt>

0000000000400bf0 <fflush@plt>:
  400bf0:	ff 25 e2 54 21 41    	jmpq   *0x412154e2(%rip)        # 416160d8 <fflush@GLIBC_2.2.5>
  400bf6:	68 18 00 00 00       	pushq  $0x18
  400bfb:	e9 60 fe ff ff       	jmpq   400a60 <.plt>

Disassembly of section .fini:

00000000414149e0 <_fini>:
    414149e0:	48 83 ec 08          	sub    $0x8,%rsp
    414149e4:	48 83 c4 08          	add    $0x8,%rsp
    414149e8:	c3                   	retq   
